; Function Attrs: nounwind uwtable
define ptr @fdt_get_property_by_offset(ptr noundef %0, i32 noundef %1, ptr noundef writeonly captures(address_is_null) %2) local_unnamed_addr #0 {
  %4 = getelementptr inbounds nuw i8, ptr %0, i64 20
  %5 = load i8, ptr %4, align 1, !tbaa !3
  %6 = zext i8 %5 to i32
  %7 = shl nuw i32 %6, 24
  %8 = getelementptr inbounds nuw i8, ptr %0, i64 21
  %9 = load i8, ptr %8, align 1, !tbaa !3
  %10 = zext i8 %9 to i32
  %11 = shl nuw nsw i32 %10, 16
  %12 = or disjoint i32 %11, %7
  %13 = getelementptr inbounds nuw i8, ptr %0, i64 22
  %14 = load i8, ptr %13, align 1, !tbaa !3
  %15 = zext i8 %14 to i32
  %16 = shl nuw nsw i32 %15, 8
  %17 = or disjoint i32 %12, %16
  %18 = getelementptr inbounds nuw i8, ptr %0, i64 23
  %19 = load i8, ptr %18, align 1, !tbaa !3
  %20 = zext i8 %19 to i32
  %21 = or disjoint i32 %17, %20
  %22 = icmp ult i32 %21, 16
  br i1 %22, label %23, label %24

23:                                               ; preds = %3
  %.not = icmp eq ptr %2, null
  br i1 %.not, label %fdt_get_property_by_offset_.exit, label %fdt_get_property_by_offset_.exit.sink.split

24:                                               ; preds = %3
  %25 = tail call i32 @fdt_check_prop_offset_(ptr noundef nonnull %0, i32 noundef %1) #9
  %26 = icmp slt i32 %25, 0
  br i1 %26, label %27, label %28

27:                                               ; preds = %24
  %.not13.i = icmp eq ptr %2, null
  br i1 %.not13.i, label %fdt_get_property_by_offset_.exit, label %fdt_get_property_by_offset_.exit.sink.split

28:                                               ; preds = %24
  %29 = getelementptr inbounds nuw i8, ptr %0, i64 8
  %30 = load i8, ptr %29, align 1, !tbaa !3
  %31 = zext i8 %30 to i64
  %32 = shl nuw nsw i64 %31, 24
  %33 = getelementptr inbounds nuw i8, ptr %0, i64 9
  %34 = load i8, ptr %33, align 1, !tbaa !3
  %35 = zext i8 %34 to i64
  %36 = shl nuw nsw i64 %35, 16
  %37 = or disjoint i64 %36, %32
  %38 = getelementptr inbounds nuw i8, ptr %0, i64 10
  %39 = load i8, ptr %38, align 1, !tbaa !3
  %40 = zext i8 %39 to i64
  %41 = shl nuw nsw i64 %40, 8
  %42 = or disjoint i64 %37, %41
  %43 = getelementptr inbounds nuw i8, ptr %0, i64 11
  %44 = load i8, ptr %43, align 1, !tbaa !3
  %45 = zext i8 %44 to i64
  %46 = or disjoint i64 %42, %45
  %47 = getelementptr inbounds nuw i8, ptr %0, i64 %46
  %48 = sext i32 %1 to i64
  %49 = getelementptr inbounds i8, ptr %47, i64 %48
  %.not.i = icmp eq ptr %2, null
  br i1 %.not.i, label %fdt_get_property_by_offset_.exit, label %50

50:                                               ; preds = %28
  %51 = getelementptr inbounds nuw i8, ptr %49, i64 4
  %52 = load i8, ptr %51, align 1, !tbaa !3
  %53 = zext i8 %52 to i32
  %54 = shl nuw i32 %53, 24
  %55 = getelementptr inbounds nuw i8, ptr %49, i64 5
  %56 = load i8, ptr %55, align 1, !tbaa !3
  %57 = zext i8 %56 to i32
  %58 = shl nuw nsw i32 %57, 16
  %59 = or disjoint i32 %58, %54
  %60 = getelementptr inbounds nuw i8, ptr %49, i64 6
  %61 = load i8, ptr %60, align 1, !tbaa !3
  %62 = zext i8 %61 to i32
  %63 = shl nuw nsw i32 %62, 8
  %64 = or disjoint i32 %59, %63
  %65 = getelementptr inbounds nuw i8, ptr %49, i64 7
  %66 = load i8, ptr %65, align 1, !tbaa !3
  %67 = zext i8 %66 to i32
  %68 = or disjoint i32 %64, %67
  br label %fdt_get_property_by_offset_.exit.sink.split

fdt_get_property_by_offset_.exit.sink.split:      ; preds = %27, %50, %23
  %.sink.i.sink = phi i32 [ -10, %23 ], [ %68, %50 ], [ %25, %27 ]
  %.0.ph = phi ptr [ null, %23 ], [ %49, %50 ], [ null, %27 ]
  store i32 %.sink.i.sink, ptr %2, align 4, !tbaa !6
  br label %fdt_get_property_by_offset_.exit

fdt_get_property_by_offset_.exit:                 ; preds = %fdt_get_property_by_offset_.exit.sink.split, %28, %27, %23
  %.0 = phi ptr [ null, %23 ], [ null, %27 ], [ %49, %28 ], [ %.0.ph, %fdt_get_property_by_offset_.exit.sink.split ]
  ret ptr %.0
}